target datalayout = "e-m:e-p270:32:32-p271:32:32-p272:64:64-i64:64-i128:128-f80:128-n8:16:32:64-S128"
target triple = "x86_64-pc-linux-gnu"

%struct.reassembly_table = type { ptr, ptr, ptr, ptr, ptr }
%struct.reassembly_table_functions = type { ptr, ptr, ptr, ptr, ptr, ptr }

@proto_register_udpcp.ett = internal global [4 x ptr] [ptr @ett_udpcp, ptr @ett_udpcp_packet_transfer_options, ptr @ett_udpcp_fragments, ptr @ett_udpcp_fragment], align 16
@.str.89 = private unnamed_addr constant [6 x i8] c"UDPCP\00", align 1
@.str.90 = private unnamed_addr constant [6 x i8] c"udpcp\00", align 1
@proto_udpcp = internal global i32 0, align 4
@udpcp_handle = internal global ptr null, align 8
@udpcp_reassembly_table = internal global %struct.reassembly_table zeroinitializer, align 8
@udpcp_reassembly_table_functions = internal global %struct.reassembly_table_functions { ptr @g_direct_hash, ptr @g_direct_equal, ptr @udpcp_temporary_key, ptr @udpcp_persistent_key, ptr @udpcp_free_temporary_key, ptr @udpcp_free_persistent_key }, align 8
@.str.91 = private unnamed_addr constant [19 x i8] c"attempt_reassembly\00", align 1
@.str.92 = private unnamed_addr constant [19 x i8] c"Reassemble payload\00", align 1
@.str.93 = private unnamed_addr constant [1 x i8] zeroinitializer, align 1
@global_udpcp_reassemble = internal global i8 1, align 1
@.str.94 = private unnamed_addr constant [19 x i8] c"attempt_xml_decode\00", align 1
@.str.95 = private unnamed_addr constant [31 x i8] c"Call XML dissector for payload\00", align 1
@global_udpcp_decode_payload_as_soap = internal global i8 1, align 1
@sequence_number_result_table = internal global ptr null, align 8

; Function Attrs: null_pointer_is_valid sspstrong uwtable
define hidden void @proto_register_udpcp() #0 {
  %1 = alloca ptr, align 8
  %2 = alloca ptr, align 8
  call void @llvm.lifetime.start.p0(i64 8, ptr %1) #10
  call void @llvm.lifetime.start.p0(i64 8, ptr %2) #10
  %3 = call i32 @proto_register_protocol(ptr noundef @.str.89, ptr noundef @.str.89, ptr noundef @.str.90)
  store i32 %3, ptr @proto_udpcp, align 4
  %4 = load i32, ptr @proto_udpcp, align 4
  call void @proto_register_field_array(i32 noundef %4, ptr noundef @proto_register_udpcp.hf, i32 noundef 27)
  call void @proto_register_subtree_array(ptr noundef @proto_register_udpcp.ett, i32 noundef 4)
  %5 = load i32, ptr @proto_udpcp, align 4
  %6 = call ptr @expert_register_protocol(i32 noundef %5)
  store ptr %6, ptr %2, align 8
  %7 = load ptr, ptr %2, align 8
  call void @expert_register_field_array(ptr noundef %7, ptr noundef @proto_register_udpcp.ei, i32 noundef 8)
  %8 = load i32, ptr @proto_udpcp, align 4
  %9 = call ptr @register_dissector(ptr noundef @.str.90, ptr noundef @dissect_udpcp, i32 noundef %8)
  store ptr %9, ptr @udpcp_handle, align 8
  call void @reassembly_table_register(ptr noundef @udpcp_reassembly_table, ptr noundef @udpcp_reassembly_table_functions)
  %10 = load i32, ptr @proto_udpcp, align 4
  %11 = call ptr @prefs_register_protocol(i32 noundef %10, ptr noundef null)
  store ptr %11, ptr %1, align 8
  %12 = load ptr, ptr %1, align 8
  call void @prefs_register_bool_preference(ptr noundef %12, ptr noundef @.str.91, ptr noundef @.str.92, ptr noundef @.str.93, ptr noundef @global_udpcp_reassemble)
  %13 = load ptr, ptr %1, align 8
  call void @prefs_register_bool_preference(ptr noundef %13, ptr noundef @.str.94, ptr noundef @.str.95, ptr noundef @.str.93, ptr noundef @global_udpcp_decode_payload_as_soap)
  %14 = call ptr @wmem_epan_scope()
  %15 = call ptr @wmem_file_scope()
  %16 = call noalias ptr @wmem_tree_new_autoreset(ptr noundef %14, ptr noundef %15)
  store ptr %16, ptr @sequence_number_result_table, align 8
  call void @llvm.lifetime.end.p0(i64 8, ptr %2) #10
  call void @llvm.lifetime.end.p0(i64 8, ptr %1) #10
  ret void
}