; Function Attrs: null_pointer_is_valid sspstrong uwtable
define hidden void @proto_register_udpcp() local_unnamed_addr #0 {
  %1 = tail call i32 @proto_register_protocol(ptr noundef nonnull @.str.89, ptr noundef nonnull @.str.89, ptr noundef nonnull @.str.90)
  store i32 %1, ptr @proto_udpcp, align 4
  tail call void @proto_register_field_array(i32 noundef %1, ptr noundef nonnull @proto_register_udpcp.hf, i32 noundef 27)
  tail call void @proto_register_subtree_array(ptr noundef nonnull @proto_register_udpcp.ett, i32 noundef 4)
  %2 = load i32, ptr @proto_udpcp, align 4
  %3 = tail call ptr @expert_register_protocol(i32 noundef %2)
  tail call void @expert_register_field_array(ptr noundef %3, ptr noundef nonnull @proto_register_udpcp.ei, i32 noundef 8)
  %4 = load i32, ptr @proto_udpcp, align 4
  %5 = tail call ptr @register_dissector(ptr noundef nonnull @.str.90, ptr noundef nonnull @dissect_udpcp, i32 noundef %4)
  store ptr %5, ptr @udpcp_handle, align 8
  tail call void @reassembly_table_register(ptr noundef nonnull @udpcp_reassembly_table, ptr noundef nonnull @udpcp_reassembly_table_functions)
  %6 = load i32, ptr @proto_udpcp, align 4
  %7 = tail call ptr @prefs_register_protocol(i32 noundef %6, ptr noundef null)
  tail call void @prefs_register_bool_preference(ptr noundef %7, ptr noundef nonnull @.str.91, ptr noundef nonnull @.str.92, ptr noundef nonnull @.str.93, ptr noundef nonnull @global_udpcp_reassemble)
  tail call void @prefs_register_bool_preference(ptr noundef %7, ptr noundef nonnull @.str.94, ptr noundef nonnull @.str.95, ptr noundef nonnull @.str.93, ptr noundef nonnull @global_udpcp_decode_payload_as_soap)
  %8 = tail call ptr @wmem_epan_scope()
  %9 = tail call ptr @wmem_file_scope()
  %10 = tail call noalias ptr @wmem_tree_new_autoreset(ptr noundef %8, ptr noundef %9)
  store ptr %10, ptr @sequence_number_result_table, align 8
  ret void
}